target datalayout = "e-m:e-p270:32:32-p271:32:32-p272:64:64-i64:64-i128:128-f80:128-n8:16:32:64-S128"
target triple = "x86_64-pc-linux-gnu"

%struct.hashmap = type { ptr, ptr, ptr, i32, i32, i32, i32, i8 }
%struct.hashmap_entry = type { ptr, i32 }

; Function Attrs: inlinehint nounwind uwtable
define internal i32 @entry_equals(ptr noundef %0, ptr noundef %1, ptr noundef %2, ptr noundef %3) #4 {
  %5 = alloca ptr, align 8
  %6 = alloca ptr, align 8
  %7 = alloca ptr, align 8
  %8 = alloca ptr, align 8
  store ptr %0, ptr %5, align 8, !tbaa !21
  store ptr %1, ptr %6, align 8, !tbaa !29
  store ptr %2, ptr %7, align 8, !tbaa !29
  store ptr %3, ptr %8, align 8, !tbaa !15
  %9 = load ptr, ptr %6, align 8, !tbaa !29
  %10 = load ptr, ptr %7, align 8, !tbaa !29
  %11 = icmp eq ptr %9, %10
  br i1 %11, label %35, label %12

12:                                               ; preds = %4
  %13 = load ptr, ptr %6, align 8, !tbaa !29
  %14 = getelementptr inbounds nuw %struct.hashmap_entry, ptr %13, i32 0, i32 1
  %15 = load i32, ptr %14, align 8, !tbaa !41
  %16 = load ptr, ptr %7, align 8, !tbaa !29
  %17 = getelementptr inbounds nuw %struct.hashmap_entry, ptr %16, i32 0, i32 1
  %18 = load i32, ptr %17, align 8, !tbaa !41
  %19 = icmp eq i32 %15, %18
  br i1 %19, label %20, label %33

20:                                               ; preds = %12
  %21 = load ptr, ptr %5, align 8, !tbaa !21
  %22 = getelementptr inbounds nuw %struct.hashmap, ptr %21, i32 0, i32 1
  %23 = load ptr, ptr %22, align 8, !tbaa !26
  %24 = load ptr, ptr %5, align 8, !tbaa !21
  %25 = getelementptr inbounds nuw %struct.hashmap, ptr %24, i32 0, i32 2
  %26 = load ptr, ptr %25, align 8, !tbaa !27
  %27 = load ptr, ptr %6, align 8, !tbaa !29
  %28 = load ptr, ptr %7, align 8, !tbaa !29
  %29 = load ptr, ptr %8, align 8, !tbaa !15
  %30 = call i32 %23(ptr noundef %26, ptr noundef %27, ptr noundef %28, ptr noundef %29)
  %31 = icmp ne i32 %30, 0
  %32 = xor i1 %31, true
  br label %33

33:                                               ; preds = %20, %12
  %34 = phi i1 [ false, %12 ], [ %32, %20 ]
  br label %35

35:                                               ; preds = %33, %4
  %36 = phi i1 [ true, %4 ], [ %34, %33 ]
  %37 = zext i1 %36 to i32
  ret i32 %37
}

; Function Attrs: inlinehint nounwind uwtable
define internal i32 @bucket(ptr noundef %0, ptr noundef %1) #4 {
  %3 = alloca ptr, align 8
  %4 = alloca ptr, align 8
  store ptr %0, ptr %3, align 8, !tbaa !21
  store ptr %1, ptr %4, align 8, !tbaa !29
  %5 = load ptr, ptr %4, align 8, !tbaa !29
  %6 = getelementptr inbounds nuw %struct.hashmap_entry, ptr %5, i32 0, i32 1
  %7 = load i32, ptr %6, align 8, !tbaa !41
  %8 = load ptr, ptr %3, align 8, !tbaa !21
  %9 = getelementptr inbounds nuw %struct.hashmap, ptr %8, i32 0, i32 4
  %10 = load i32, ptr %9, align 4, !tbaa !23
  %11 = sub i32 %10, 1
  %12 = and i32 %7, %11
  ret i32 %12
}

; Function Attrs: inlinehint nounwind uwtable
define internal ptr @find_entry_ptr(ptr noundef %0, ptr noundef %1, ptr noundef %2) #4 {
  %4 = alloca ptr, align 8
  %5 = alloca ptr, align 8
  %6 = alloca ptr, align 8
  %7 = alloca ptr, align 8
  store ptr %0, ptr %4, align 8, !tbaa !21
  store ptr %1, ptr %5, align 8, !tbaa !29
  store ptr %2, ptr %6, align 8, !tbaa !15
  call void @llvm.lifetime.start.p0(i64 8, ptr %7) #9
  %8 = load ptr, ptr %4, align 8, !tbaa !21
  %9 = getelementptr inbounds nuw %struct.hashmap, ptr %8, i32 0, i32 0
  %10 = load ptr, ptr %9, align 8, !tbaa !31
  %11 = load ptr, ptr %4, align 8, !tbaa !21
  %12 = load ptr, ptr %5, align 8, !tbaa !29
  %13 = call i32 @bucket(ptr noundef %11, ptr noundef %12)
  %14 = zext i32 %13 to i64
  %15 = getelementptr inbounds nuw ptr, ptr %10, i64 %14
  store ptr %15, ptr %7, align 8, !tbaa !36
  br label %16

16:                                               ; preds = %31, %3
  %17 = load ptr, ptr %7, align 8, !tbaa !36
  %18 = load ptr, ptr %17, align 8, !tbaa !29
  %19 = icmp ne ptr %18, null
  br i1 %19, label %20, label %29

20:                                               ; preds = %16
  %21 = load ptr, ptr %4, align 8, !tbaa !21
  %22 = load ptr, ptr %7, align 8, !tbaa !36
  %23 = load ptr, ptr %22, align 8, !tbaa !29
  %24 = load ptr, ptr %5, align 8, !tbaa !29
  %25 = load ptr, ptr %6, align 8, !tbaa !15
  %26 = call i32 @entry_equals(ptr noundef %21, ptr noundef %23, ptr noundef %24, ptr noundef %25)
  %27 = icmp ne i32 %26, 0
  %28 = xor i1 %27, true
  br label %29

29:                                               ; preds = %20, %16
  %30 = phi i1 [ false, %16 ], [ %28, %20 ]
  br i1 %30, label %31, label %35

31:                                               ; preds = %29
  %32 = load ptr, ptr %7, align 8, !tbaa !36
  %33 = load ptr, ptr %32, align 8, !tbaa !29
  %34 = getelementptr inbounds nuw %struct.hashmap_entry, ptr %33, i32 0, i32 0
  store ptr %34, ptr %7, align 8, !tbaa !36
  br label %16, !llvm.loop !37

35:                                               ; preds = %29
  %36 = load ptr, ptr %7, align 8, !tbaa !36
  call void @llvm.lifetime.end.p0(i64 8, ptr %7) #9
  ret ptr %36
}

; Function Attrs: nounwind uwtable
define dso_local ptr @hashmap_get(ptr noundef %0, ptr noundef %1, ptr noundef %2) #0 {
  %4 = alloca ptr, align 8
  %5 = alloca ptr, align 8
  %6 = alloca ptr, align 8
  %7 = alloca ptr, align 8
  store ptr %0, ptr %5, align 8, !tbaa !21
  store ptr %1, ptr %6, align 8, !tbaa !29
  store ptr %2, ptr %7, align 8, !tbaa !15
  %8 = load ptr, ptr %5, align 8, !tbaa !21
  %9 = getelementptr inbounds nuw %struct.hashmap, ptr %8, i32 0, i32 0
  %10 = load ptr, ptr %9, align 8, !tbaa !31
  %11 = icmp ne ptr %10, null
  br i1 %11, label %13, label %12

12:                                               ; preds = %3
  store ptr null, ptr %4, align 8
  br label %19

13:                                               ; preds = %3
  %14 = load ptr, ptr %5, align 8, !tbaa !21
  %15 = load ptr, ptr %6, align 8, !tbaa !29
  %16 = load ptr, ptr %7, align 8, !tbaa !15
  %17 = call ptr @find_entry_ptr(ptr noundef %14, ptr noundef %15, ptr noundef %16)
  %18 = load ptr, ptr %17, align 8, !tbaa !29
  store ptr %18, ptr %4, align 8
  br label %19

19:                                               ; preds = %13, %12
  %20 = load ptr, ptr %4, align 8
  ret ptr %20
}