; Function Attrs: nounwind uwtable
define dso_local ptr @hashmap_get(ptr noundef readonly captures(none) %0, ptr noundef %1, ptr noundef %2) local_unnamed_addr #3 {
  %4 = load ptr, ptr %0, align 8, !tbaa !21
  %.not = icmp eq ptr %4, null
  br i1 %.not, label %find_entry_ptr.exit, label %5

5:                                                ; preds = %3
  %6 = getelementptr i8, ptr %0, i64 28
  %.val.i = load i32, ptr %6, align 4, !tbaa !13
  %7 = getelementptr i8, ptr %1, i64 8
  %.val12.i = load i32, ptr %7, align 8, !tbaa !30
  %8 = add i32 %.val.i, -1
  %9 = and i32 %.val12.i, %8
  %10 = zext i32 %9 to i64
  %11 = getelementptr inbounds nuw ptr, ptr %4, i64 %10
  %12 = getelementptr inbounds nuw i8, ptr %0, i64 8
  %13 = load ptr, ptr %11, align 8, !tbaa !24
  %.not16.i = icmp eq ptr %13, null
  %14 = icmp eq ptr %13, %1
  %or.cond17.i = or i1 %.not16.i, %14
  br i1 %or.cond17.i, label %find_entry_ptr.exit, label %.lr.ph.i

.lr.ph.i:                                         ; preds = %5
  %15 = getelementptr inbounds nuw i8, ptr %0, i64 16
  br label %16

16:                                               ; preds = %entry_equals.exit.thread.i, %.lr.ph.i
  %17 = phi ptr [ %13, %.lr.ph.i ], [ %26, %entry_equals.exit.thread.i ]
  %.018.i = phi ptr [ %11, %.lr.ph.i ], [ %25, %entry_equals.exit.thread.i ]
  %18 = getelementptr inbounds nuw i8, ptr %17, i64 8
  %19 = load i32, ptr %18, align 8, !tbaa !30
  %20 = load i32, ptr %7, align 8, !tbaa !30
  %21 = icmp eq i32 %19, %20
  br i1 %21, label %entry_equals.exit.i, label %entry_equals.exit.thread.i

entry_equals.exit.i:                              ; preds = %16
  %22 = load ptr, ptr %12, align 8, !tbaa !18
  %23 = load ptr, ptr %15, align 8, !tbaa !19
  %24 = tail call i32 %22(ptr noundef %23, ptr noundef nonnull %17, ptr noundef nonnull %1, ptr noundef %2) #15
  %.not.i.not.i = icmp eq i32 %24, 0
  %.pre.pre = load ptr, ptr %.018.i, align 8, !tbaa !24
  br i1 %.not.i.not.i, label %find_entry_ptr.exit, label %entry_equals.exit.thread.i

entry_equals.exit.thread.i:                       ; preds = %entry_equals.exit.i, %16
  %25 = phi ptr [ %17, %16 ], [ %.pre.pre, %entry_equals.exit.i ]
  %26 = load ptr, ptr %25, align 8, !tbaa !24
  %.not.i = icmp eq ptr %26, null
  %27 = icmp eq ptr %26, %1
  %or.cond.i = or i1 %.not.i, %27
  br i1 %or.cond.i, label %find_entry_ptr.exit, label %16, !llvm.loop !31

find_entry_ptr.exit:                              ; preds = %entry_equals.exit.thread.i, %entry_equals.exit.i, %5, %3
  %.0 = phi ptr [ null, %3 ], [ %13, %5 ], [ %26, %entry_equals.exit.thread.i ], [ %.pre.pre, %entry_equals.exit.i ]
  ret ptr %.0
}